target datalayout = "e-m:e-p270:32:32-p271:32:32-p272:64:64-i64:64-i128:128-f80:128-n8:16:32:64-S128"
target triple = "x86_64-pc-linux-gnu"

%struct.HWContextType = type { i32, ptr, ptr, i64, i64, i64, ptr, ptr, ptr, ptr, ptr, ptr, ptr, ptr, ptr, ptr, ptr, ptr, ptr, ptr, ptr }
%struct.FFHWDeviceContext = type { %struct.AVHWDeviceContext, ptr, ptr }
%struct.AVHWDeviceContext = type { ptr, i32, ptr, ptr, ptr }
%struct.AVBufferRef = type { ptr, ptr, i64 }

; Function Attrs: nounwind uwtable
define i32 @av_hwdevice_ctx_init(ptr noundef %0) #0 {
  %2 = alloca ptr, align 8
  %3 = alloca ptr, align 8
  %4 = alloca ptr, align 8
  %5 = alloca i32, align 4
  store ptr %0, ptr %2, align 8, !tbaa !28
  call void @llvm.lifetime.start.p0(i64 8, ptr %3) #5
  %6 = load ptr, ptr %2, align 8, !tbaa !28
  %7 = getelementptr inbounds nuw %struct.AVBufferRef, ptr %6, i32 0, i32 1
  %8 = load ptr, ptr %7, align 8, !tbaa !37
  store ptr %8, ptr %3, align 8, !tbaa !20
  call void @llvm.lifetime.start.p0(i64 8, ptr %4) #5
  %9 = load ptr, ptr %3, align 8, !tbaa !20
  %10 = getelementptr inbounds nuw %struct.FFHWDeviceContext, ptr %9, i32 0, i32 0
  store ptr %10, ptr %4, align 8, !tbaa !22
  call void @llvm.lifetime.start.p0(i64 4, ptr %5) #5
  store i32 0, ptr %5, align 4, !tbaa !9
  %11 = load ptr, ptr %3, align 8, !tbaa !20
  %12 = getelementptr inbounds nuw %struct.FFHWDeviceContext, ptr %11, i32 0, i32 1
  %13 = load ptr, ptr %12, align 8, !tbaa !32
  %14 = getelementptr inbounds nuw %struct.HWContextType, ptr %13, i32 0, i32 8
  %15 = load ptr, ptr %14, align 8, !tbaa !40
  %16 = icmp ne ptr %15, null
  br i1 %16, label %17, label %25

17:                                               ; preds = %1
  %18 = load ptr, ptr %3, align 8, !tbaa !20
  %19 = getelementptr inbounds nuw %struct.FFHWDeviceContext, ptr %18, i32 0, i32 1
  %20 = load ptr, ptr %19, align 8, !tbaa !32
  %21 = getelementptr inbounds nuw %struct.HWContextType, ptr %20, i32 0, i32 8
  %22 = load ptr, ptr %21, align 8, !tbaa !40
  %23 = load ptr, ptr %4, align 8, !tbaa !22
  %24 = call i32 %22(ptr noundef %23)
  store i32 %24, ptr %5, align 4, !tbaa !9
  br label %25

25:                                               ; preds = %17, %1
  %26 = load i32, ptr %5, align 4, !tbaa !9
  call void @llvm.lifetime.end.p0(i64 4, ptr %5) #5
  call void @llvm.lifetime.end.p0(i64 8, ptr %4) #5
  call void @llvm.lifetime.end.p0(i64 8, ptr %3) #5
  ret i32 %26
}

; Function Attrs: nounwind uwtable
define i32 @av_hwdevice_ctx_create(ptr noundef %0, i32 noundef %1, ptr noundef %2, ptr noundef %3, i32 noundef %4) #0 {
  %6 = alloca i32, align 4
  %7 = alloca ptr, align 8
  %8 = alloca i32, align 4
  %9 = alloca ptr, align 8
  %10 = alloca ptr, align 8
  %11 = alloca i32, align 4
  %12 = alloca ptr, align 8
  %13 = alloca ptr, align 8
  %14 = alloca i32, align 4
  %15 = alloca i32, align 4
  store ptr %0, ptr %7, align 8, !tbaa !112
  store i32 %1, ptr %8, align 4, !tbaa !9
  store ptr %2, ptr %9, align 8, !tbaa !4
  store ptr %3, ptr %10, align 8, !tbaa !113
  store i32 %4, ptr %11, align 4, !tbaa !9
  call void @llvm.lifetime.start.p0(i64 8, ptr %12) #5
  store ptr null, ptr %12, align 8, !tbaa !28
  call void @llvm.lifetime.start.p0(i64 8, ptr %13) #5
  call void @llvm.lifetime.start.p0(i64 4, ptr %14) #5
  store i32 0, ptr %14, align 4, !tbaa !9
  %16 = load i32, ptr %8, align 4, !tbaa !9
  %17 = call ptr @av_hwdevice_ctx_alloc(i32 noundef %16)
  store ptr %17, ptr %12, align 8, !tbaa !28
  %18 = load ptr, ptr %12, align 8, !tbaa !28
  %19 = icmp ne ptr %18, null
  br i1 %19, label %21, label %20

20:                                               ; preds = %5
  store i32 -12, ptr %14, align 4, !tbaa !9
  br label %56

21:                                               ; preds = %5
  %22 = load ptr, ptr %12, align 8, !tbaa !28
  %23 = getelementptr inbounds nuw %struct.AVBufferRef, ptr %22, i32 0, i32 1
  %24 = load ptr, ptr %23, align 8, !tbaa !37
  store ptr %24, ptr %13, align 8, !tbaa !20
  %25 = load ptr, ptr %13, align 8, !tbaa !20
  %26 = getelementptr inbounds nuw %struct.FFHWDeviceContext, ptr %25, i32 0, i32 1
  %27 = load ptr, ptr %26, align 8, !tbaa !32
  %28 = getelementptr inbounds nuw %struct.HWContextType, ptr %27, i32 0, i32 6
  %29 = load ptr, ptr %28, align 8, !tbaa !114
  %30 = icmp ne ptr %29, null
  br i1 %30, label %32, label %31

31:                                               ; preds = %21
  store i32 -38, ptr %14, align 4, !tbaa !9
  br label %56

32:                                               ; preds = %21
  %33 = load ptr, ptr %13, align 8, !tbaa !20
  %34 = getelementptr inbounds nuw %struct.FFHWDeviceContext, ptr %33, i32 0, i32 1
  %35 = load ptr, ptr %34, align 8, !tbaa !32
  %36 = getelementptr inbounds nuw %struct.HWContextType, ptr %35, i32 0, i32 6
  %37 = load ptr, ptr %36, align 8, !tbaa !114
  %38 = load ptr, ptr %13, align 8, !tbaa !20
  %39 = getelementptr inbounds nuw %struct.FFHWDeviceContext, ptr %38, i32 0, i32 0
  %40 = load ptr, ptr %9, align 8, !tbaa !4
  %41 = load ptr, ptr %10, align 8, !tbaa !113
  %42 = load i32, ptr %11, align 4, !tbaa !9
  %43 = call i32 %37(ptr noundef %39, ptr noundef %40, ptr noundef %41, i32 noundef %42)
  store i32 %43, ptr %14, align 4, !tbaa !9
  %44 = load i32, ptr %14, align 4, !tbaa !9
  %45 = icmp slt i32 %44, 0
  br i1 %45, label %46, label %47

46:                                               ; preds = %32
  br label %56

47:                                               ; preds = %32
  %48 = load ptr, ptr %12, align 8, !tbaa !28
  %49 = call i32 @av_hwdevice_ctx_init(ptr noundef %48)
  store i32 %49, ptr %14, align 4, !tbaa !9
  %50 = load i32, ptr %14, align 4, !tbaa !9
  %51 = icmp slt i32 %50, 0
  br i1 %51, label %52, label %53

52:                                               ; preds = %47
  br label %56

53:                                               ; preds = %47
  %54 = load ptr, ptr %12, align 8, !tbaa !28
  %55 = load ptr, ptr %7, align 8, !tbaa !112
  store ptr %54, ptr %55, align 8, !tbaa !28
  store i32 0, ptr %6, align 4
  store i32 1, ptr %15, align 4
  br label %59

56:                                               ; preds = %52, %46, %31, %20
  call void @av_buffer_unref(ptr noundef %12)
  %57 = load ptr, ptr %7, align 8, !tbaa !112
  store ptr null, ptr %57, align 8, !tbaa !28
  %58 = load i32, ptr %14, align 4, !tbaa !9
  store i32 %58, ptr %6, align 4
  store i32 1, ptr %15, align 4
  br label %59

59:                                               ; preds = %56, %53
  call void @llvm.lifetime.end.p0(i64 4, ptr %14) #5
  call void @llvm.lifetime.end.p0(i64 8, ptr %13) #5
  call void @llvm.lifetime.end.p0(i64 8, ptr %12) #5
  %60 = load i32, ptr %6, align 4
  ret i32 %60
}