; Function Attrs: nounwind uwtable
define range(i32 -2147483648, 1) i32 @av_hwdevice_ctx_create(ptr noundef writeonly captures(none) initializes((0, 8)) %0, i32 noundef %1, ptr noundef %2, ptr noundef %3, i32 noundef %4) local_unnamed_addr #5 {
  %6 = alloca ptr, align 8
  call void @llvm.lifetime.start.p0(i64 8, ptr nonnull %6) #11
  %7 = tail call ptr @av_hwdevice_ctx_alloc(i32 noundef %1)
  store ptr %7, ptr %6, align 8, !tbaa !36
  %.not = icmp eq ptr %7, null
  br i1 %.not, label %26, label %8

8:                                                ; preds = %5
  %9 = getelementptr inbounds nuw i8, ptr %7, i64 8
  %10 = load ptr, ptr %9, align 8, !tbaa !32
  %11 = getelementptr inbounds nuw i8, ptr %10, i64 40
  %12 = load ptr, ptr %11, align 8, !tbaa !27
  %13 = getelementptr inbounds nuw i8, ptr %12, i64 48
  %14 = load ptr, ptr %13, align 8, !tbaa !103
  %.not17 = icmp eq ptr %14, null
  br i1 %.not17, label %26, label %15

15:                                               ; preds = %8
  %16 = tail call i32 %14(ptr noundef nonnull %10, ptr noundef %2, ptr noundef %3, i32 noundef %4) #11
  %17 = icmp slt i32 %16, 0
  br i1 %17, label %26, label %18

18:                                               ; preds = %15
  %19 = load ptr, ptr %9, align 8, !tbaa !32
  %20 = getelementptr inbounds nuw i8, ptr %19, i64 40
  %21 = load ptr, ptr %20, align 8, !tbaa !27
  %22 = getelementptr inbounds nuw i8, ptr %21, i64 64
  %23 = load ptr, ptr %22, align 8, !tbaa !35
  %.not.i = icmp eq ptr %23, null
  br i1 %.not.i, label %av_hwdevice_ctx_init.exit.thread, label %av_hwdevice_ctx_init.exit

av_hwdevice_ctx_init.exit:                        ; preds = %18
  %24 = tail call i32 %23(ptr noundef nonnull %19) #11
  %25 = icmp slt i32 %24, 0
  br i1 %25, label %26, label %av_hwdevice_ctx_init.exit.thread

26:                                               ; preds = %8, %5, %av_hwdevice_ctx_init.exit, %15
  %.0 = phi i32 [ %16, %15 ], [ %24, %av_hwdevice_ctx_init.exit ], [ -12, %5 ], [ -38, %8 ]
  call void @av_buffer_unref(ptr noundef nonnull %6) #11
  br label %av_hwdevice_ctx_init.exit.thread

av_hwdevice_ctx_init.exit.thread:                 ; preds = %av_hwdevice_ctx_init.exit, %18, %26
  %storemerge = phi ptr [ null, %26 ], [ %7, %18 ], [ %7, %av_hwdevice_ctx_init.exit ]
  %.012 = phi i32 [ %.0, %26 ], [ 0, %18 ], [ 0, %av_hwdevice_ctx_init.exit ]
  store ptr %storemerge, ptr %0, align 8, !tbaa !36
  call void @llvm.lifetime.end.p0(i64 8, ptr nonnull %6) #11
  ret i32 %.012
}